; Function Attrs: nounwind uwtable
define internal void @V4L2_FreeDeviceHandle(ptr noundef readonly captures(address_is_null) %0) #1 {
  %.not = icmp eq ptr %0, null
  br i1 %.not, label %8, label %2

2:                                                ; preds = %1
  %3 = getelementptr inbounds nuw i8, ptr %0, i64 112
  %4 = load ptr, ptr %3, align 8
  %5 = getelementptr inbounds nuw i8, ptr %4, i64 8
  %6 = load ptr, ptr %5, align 8
  tail call void @SDL_free_REAL(ptr noundef %6) #11
  %7 = load ptr, ptr %4, align 8
  tail call void @SDL_free_REAL(ptr noundef %7) #11
  tail call void @SDL_free_REAL(ptr noundef nonnull %4) #11
  br label %8

8:                                                ; preds = %2, %1
  ret void
}